; ModuleID = 'source-C-CXX/24/1378.cpp'
source_filename = "source-C-CXX/24/1378.cpp"
target datalayout = "e-m:e-p270:32:32-p271:32:32-p272:64:64-i64:64-f80:128-n8:16:32:64-S128"
target triple = "x86_64-pc-linux-gnu"

%"class.std::ios_base::Init" = type { i8 }
%"class.std::basic_istream" = type { i32 (...)**, i64, %"class.std::basic_ios" }
%"class.std::basic_ios" = type { %"class.std::ios_base", %"class.std::basic_ostream"*, i8, i8, %"class.std::basic_streambuf"*, %"class.std::ctype"*, %"class.std::num_put"*, %"class.std::num_get"* }
%"class.std::ios_base" = type { i32 (...)**, i64, i64, i32, i32, i32, %"struct.std::ios_base::_Callback_list"*, %"struct.std::ios_base::_Words", [8 x %"struct.std::ios_base::_Words"], i32, %"struct.std::ios_base::_Words"*, %"class.std::locale" }
%"struct.std::ios_base::_Callback_list" = type { %"struct.std::ios_base::_Callback_list"*, void (i32, %"class.std::ios_base"*, i32)*, i32, i32 }
%"struct.std::ios_base::_Words" = type { i8*, i64 }
%"class.std::locale" = type { %"class.std::locale::_Impl"* }
%"class.std::locale::_Impl" = type { i32, %"class.std::locale::facet"**, i64, %"class.std::locale::facet"**, i8** }
%"class.std::locale::facet" = type <{ i32 (...)**, i32, [4 x i8] }>
%"class.std::basic_ostream" = type { i32 (...)**, %"class.std::basic_ios" }
%"class.std::basic_streambuf" = type { i32 (...)**, i8*, i8*, i8*, i8*, i8*, i8*, %"class.std::locale" }
%"class.std::ctype" = type <{ %"class.std::locale::facet.base", [4 x i8], %struct.__locale_struct*, i8, [7 x i8], i32*, i32*, i16*, i8, [256 x i8], [256 x i8], i8, [6 x i8] }>
%"class.std::locale::facet.base" = type <{ i32 (...)**, i32 }>
%struct.__locale_struct = type { [13 x %struct.__locale_data*], i16*, i32*, i32*, [13 x i8*] }
%struct.__locale_data = type opaque
%"class.std::num_put" = type { %"class.std::locale::facet.base", [4 x i8] }
%"class.std::num_get" = type { %"class.std::locale::facet.base", [4 x i8] }

@_ZStL8__ioinit = internal global %"class.std::ios_base::Init" zeroinitializer, align 1
@__dso_handle = external hidden global i8
@_ZSt3cin = external global %"class.std::basic_istream", align 8
@_ZSt4cout = external global %"class.std::basic_ostream", align 8
@.str = private unnamed_addr constant [2 x i8] c"1\00", align 1
@llvm.global_ctors = appending global [1 x { i32, void ()*, i8* }] [{ i32, void ()*, i8* } { i32 65535, void ()* @_GLOBAL__sub_I_1378.cpp, i8* null }]

declare void @_ZNSt8ios_base4InitC1Ev(%"class.std::ios_base::Init"* nonnull align 1 dereferenceable(1)) unnamed_addr #0

; Function Attrs: nounwind
declare void @_ZNSt8ios_base4InitD1Ev(%"class.std::ios_base::Init"* nonnull align 1 dereferenceable(1)) unnamed_addr #1

; Function Attrs: nofree nounwind
declare i32 @__cxa_atexit(void (i8*)*, i8*, i8*) local_unnamed_addr #2

; Function Attrs: mustprogress norecurse sspstrong uwtable
define dso_local i32 @main() local_unnamed_addr #3 {
  %1 = alloca i32, align 4
  %2 = alloca [100 x i32], align 16
  %3 = bitcast i32* %1 to i8*
  call void @llvm.lifetime.start.p0i8(i64 4, i8* nonnull %3) #7
  %4 = bitcast [100 x i32]* %2 to i8*
  call void @llvm.lifetime.start.p0i8(i64 400, i8* nonnull %4) #7
  %5 = call nonnull align 8 dereferenceable(16) %"class.std::basic_istream"* @_ZNSirsERi(%"class.std::basic_istream"* nonnull align 8 dereferenceable(16) @_ZSt3cin, i32* nonnull align 4 dereferenceable(4) %1)
  %6 = load i32, i32* %1, align 4, !tbaa !5
  %7 = icmp eq i32 %6, 0
  br i1 %7, label %8, label %37

8:                                                ; preds = %0
  %9 = call nonnull align 8 dereferenceable(8) %"class.std::basic_ostream"* @_ZSt16__ostream_insertIcSt11char_traitsIcEERSt13basic_ostreamIT_T0_ES6_PKS3_l(%"class.std::basic_ostream"* nonnull align 8 dereferenceable(8) @_ZSt4cout, i8* nonnull getelementptr inbounds ([2 x i8], [2 x i8]* @.str, i64 0, i64 0), i64 1)
  %10 = load i8*, i8** bitcast (%"class.std::basic_ostream"* @_ZSt4cout to i8**), align 8, !tbaa !9
  %11 = getelementptr i8, i8* %10, i64 -24
  %12 = bitcast i8* %11 to i64*
  %13 = load i64, i64* %12, align 8
  %14 = add nsw i64 %13, 240
  %15 = getelementptr inbounds i8, i8* bitcast (%"class.std::basic_ostream"* @_ZSt4cout to i8*), i64 %14
  %16 = bitcast i8* %15 to %"class.std::ctype"**
  %17 = load %"class.std::ctype"*, %"class.std::ctype"** %16, align 8, !tbaa !11
  %18 = icmp eq %"class.std::ctype"* %17, null
  br i1 %18, label %19, label %20

19:                                               ; preds = %8
  call void @_ZSt16__throw_bad_castv() #8
  unreachable

20:                                               ; preds = %8
  %21 = getelementptr inbounds %"class.std::ctype", %"class.std::ctype"* %17, i64 0, i32 8
  %22 = load i8, i8* %21, align 8, !tbaa !15
  %23 = icmp eq i8 %22, 0
  br i1 %23, label %27, label %24

24:                                               ; preds = %20
  %25 = getelementptr inbounds %"class.std::ctype", %"class.std::ctype"* %17, i64 0, i32 9, i64 10
  %26 = load i8, i8* %25, align 1, !tbaa !17
  br label %33

27:                                               ; preds = %20
  call void @_ZNKSt5ctypeIcE13_M_widen_initEv(%"class.std::ctype"* nonnull align 8 dereferenceable(570) %17)
  %28 = bitcast %"class.std::ctype"* %17 to i8 (%"class.std::ctype"*, i8)***
  %29 = load i8 (%"class.std::ctype"*, i8)**, i8 (%"class.std::ctype"*, i8)*** %28, align 8, !tbaa !9
  %30 = getelementptr inbounds i8 (%"class.std::ctype"*, i8)*, i8 (%"class.std::ctype"*, i8)** %29, i64 6
  %31 = load i8 (%"class.std::ctype"*, i8)*, i8 (%"class.std::ctype"*, i8)** %30, align 8
  %32 = call signext i8 %31(%"class.std::ctype"* nonnull align 8 dereferenceable(570) %17, i8 signext 10)
  br label %33

33:                                               ; preds = %24, %27
  %34 = phi i8 [ %26, %24 ], [ %32, %27 ]
  %35 = call nonnull align 8 dereferenceable(8) %"class.std::basic_ostream"* @_ZNSo3putEc(%"class.std::basic_ostream"* nonnull align 8 dereferenceable(8) @_ZSt4cout, i8 signext %34)
  %36 = call nonnull align 8 dereferenceable(8) %"class.std::basic_ostream"* @_ZNSo5flushEv(%"class.std::basic_ostream"* nonnull align 8 dereferenceable(8) %35)
  br label %118

37:                                               ; preds = %0
  %38 = getelementptr inbounds [100 x i32], [100 x i32]* %2, i64 0, i64 0
  store i32 2, i32* %38, align 16, !tbaa !5
  %39 = icmp sgt i32 %6, 1
  br i1 %39, label %40, label %59

40:                                               ; preds = %37, %107
  %41 = phi i32 [ %108, %107 ], [ 0, %37 ]
  %42 = phi i32 [ %109, %107 ], [ 1, %37 ]
  %43 = icmp slt i32 %41, 0
  br i1 %43, label %107, label %44

44:                                               ; preds = %40
  %45 = load i32, i32* %38, align 16, !tbaa !5
  %46 = shl nsw i32 %45, 1
  %47 = icmp sgt i32 %45, 4
  %48 = zext i1 %47 to i32
  %49 = srem i32 %46, 10
  store i32 %49, i32* %38, align 16, !tbaa !5
  %50 = icmp eq i32 %41, 0
  br i1 %50, label %100, label %51

51:                                               ; preds = %44
  %52 = zext i32 %41 to i64
  %53 = and i64 %52, 1
  %54 = icmp eq i32 %41, 1
  br i1 %54, label %86, label %55

55:                                               ; preds = %51
  %56 = and i64 %52, 4294967294
  br label %62

57:                                               ; preds = %107
  %58 = icmp sgt i32 %108, -1
  br i1 %58, label %59, label %118

59:                                               ; preds = %37, %57
  %60 = phi i32 [ %108, %57 ], [ 0, %37 ]
  %61 = zext i32 %60 to i64
  br label %111

62:                                               ; preds = %62, %55
  %63 = phi i64 [ 1, %55 ], [ %83, %62 ]
  %64 = phi i32 [ %48, %55 ], [ %80, %62 ]
  %65 = phi i64 [ %56, %55 ], [ %84, %62 ]
  %66 = getelementptr inbounds [100 x i32], [100 x i32]* %2, i64 0, i64 %63
  %67 = load i32, i32* %66, align 4, !tbaa !5
  %68 = shl nsw i32 %67, 1
  %69 = or i32 %68, %64
  %70 = icmp sgt i32 %69, 9
  %71 = zext i1 %70 to i32
  %72 = srem i32 %69, 10
  %73 = getelementptr inbounds [100 x i32], [100 x i32]* %2, i64 0, i64 %63
  store i32 %72, i32* %73, align 4, !tbaa !5
  %74 = add nuw nsw i64 %63, 1
  %75 = getelementptr inbounds [100 x i32], [100 x i32]* %2, i64 0, i64 %74
  %76 = load i32, i32* %75, align 4, !tbaa !5
  %77 = shl nsw i32 %76, 1
  %78 = or i32 %77, %71
  %79 = icmp sgt i32 %78, 9
  %80 = zext i1 %79 to i32
  %81 = srem i32 %78, 10
  %82 = getelementptr inbounds [100 x i32], [100 x i32]* %2, i64 0, i64 %74
  store i32 %81, i32* %82, align 4, !tbaa !5
  %83 = add nuw nsw i64 %63, 2
  %84 = add i64 %65, -2
  %85 = icmp eq i64 %84, 0
  br i1 %85, label %86, label %62, !llvm.loop !18

86:                                               ; preds = %62, %51
  %87 = phi i32 [ undef, %51 ], [ %80, %62 ]
  %88 = phi i64 [ 1, %51 ], [ %83, %62 ]
  %89 = phi i32 [ %48, %51 ], [ %80, %62 ]
  %90 = icmp eq i64 %53, 0
  br i1 %90, label %100, label %91

91:                                               ; preds = %86
  %92 = getelementptr inbounds [100 x i32], [100 x i32]* %2, i64 0, i64 %88
  %93 = load i32, i32* %92, align 4, !tbaa !5
  %94 = shl nsw i32 %93, 1
  %95 = or i32 %94, %89
  %96 = srem i32 %95, 10
  %97 = getelementptr inbounds [100 x i32], [100 x i32]* %2, i64 0, i64 %88
  store i32 %96, i32* %97, align 4, !tbaa !5
  %98 = icmp sgt i32 %95, 9
  %99 = zext i1 %98 to i32
  br label %100

100:                                              ; preds = %91, %86, %44
  %101 = phi i32 [ %48, %44 ], [ %87, %86 ], [ %99, %91 ]
  %102 = icmp eq i32 %101, 1
  br i1 %102, label %103, label %107

103:                                              ; preds = %100
  %104 = add nsw i32 %41, 1
  %105 = sext i32 %104 to i64
  %106 = getelementptr inbounds [100 x i32], [100 x i32]* %2, i64 0, i64 %105
  store i32 1, i32* %106, align 4, !tbaa !5
  br label %107

107:                                              ; preds = %40, %100, %103
  %108 = phi i32 [ %104, %103 ], [ %41, %100 ], [ %41, %40 ]
  %109 = add nuw nsw i32 %42, 1
  %110 = icmp eq i32 %109, %6
  br i1 %110, label %57, label %40, !llvm.loop !21

111:                                              ; preds = %59, %111
  %112 = phi i64 [ %61, %59 ], [ %117, %111 ]
  %113 = getelementptr inbounds [100 x i32], [100 x i32]* %2, i64 0, i64 %112
  %114 = load i32, i32* %113, align 4, !tbaa !5
  %115 = call nonnull align 8 dereferenceable(8) %"class.std::basic_ostream"* @_ZNSolsEi(%"class.std::basic_ostream"* nonnull align 8 dereferenceable(8) @_ZSt4cout, i32 %114)
  %116 = icmp sgt i64 %112, 0
  %117 = add nsw i64 %112, -1
  br i1 %116, label %111, label %118, !llvm.loop !22

118:                                              ; preds = %111, %57, %33
  call void @llvm.lifetime.end.p0i8(i64 400, i8* nonnull %4) #7
  call void @llvm.lifetime.end.p0i8(i64 4, i8* nonnull %3) #7
  ret i32 0
}

; Function Attrs: argmemonly mustprogress nofree nosync nounwind willreturn
declare void @llvm.lifetime.start.p0i8(i64 immarg, i8* nocapture) #4

declare nonnull align 8 dereferenceable(16) %"class.std::basic_istream"* @_ZNSirsERi(%"class.std::basic_istream"* nonnull align 8 dereferenceable(16), i32* nonnull align 4 dereferenceable(4)) local_unnamed_addr #0

declare nonnull align 8 dereferenceable(8) %"class.std::basic_ostream"* @_ZNSolsEi(%"class.std::basic_ostream"* nonnull align 8 dereferenceable(8), i32) local_unnamed_addr #0

; Function Attrs: argmemonly mustprogress nofree nosync nounwind willreturn
declare void @llvm.lifetime.end.p0i8(i64 immarg, i8* nocapture) #4

declare nonnull align 8 dereferenceable(8) %"class.std::basic_ostream"* @_ZSt16__ostream_insertIcSt11char_traitsIcEERSt13basic_ostreamIT_T0_ES6_PKS3_l(%"class.std::basic_ostream"* nonnull align 8 dereferenceable(8), i8*, i64) local_unnamed_addr #0

declare nonnull align 8 dereferenceable(8) %"class.std::basic_ostream"* @_ZNSo3putEc(%"class.std::basic_ostream"* nonnull align 8 dereferenceable(8), i8 signext) local_unnamed_addr #0

declare nonnull align 8 dereferenceable(8) %"class.std::basic_ostream"* @_ZNSo5flushEv(%"class.std::basic_ostream"* nonnull align 8 dereferenceable(8)) local_unnamed_addr #0

; Function Attrs: noreturn
declare void @_ZSt16__throw_bad_castv() local_unnamed_addr #5

declare void @_ZNKSt5ctypeIcE13_M_widen_initEv(%"class.std::ctype"* nonnull align 8 dereferenceable(570)) local_unnamed_addr #0

; Function Attrs: sspstrong uwtable
define internal void @_GLOBAL__sub_I_1378.cpp() #6 section ".text.startup" {
  tail call void @_ZNSt8ios_base4InitC1Ev(%"class.std::ios_base::Init"* nonnull align 1 dereferenceable(1) @_ZStL8__ioinit)
  %1 = tail call i32 @__cxa_atexit(void (i8*)* bitcast (void (%"class.std::ios_base::Init"*)* @_ZNSt8ios_base4InitD1Ev to void (i8*)*), i8* getelementptr inbounds (%"class.std::ios_base::Init", %"class.std::ios_base::Init"* @_ZStL8__ioinit, i64 0, i32 0), i8* nonnull @__dso_handle) #7
  ret void
}


!llvm.module.flags = !{!0, !1, !2, !3}
!llvm.ident = !{!4}

!0 = !{i32 1, !"wchar_size", i32 4}
!1 = !{i32 7, !"PIC Level", i32 2}
!2 = !{i32 7, !"PIE Level", i32 2}
!3 = !{i32 7, !"uwtable", i32 1}
!4 = !{!"clang version 13.0.0"}
!5 = !{!6, !6, i64 0}
!6 = !{!"int", !7, i64 0}
!7 = !{!"omnipotent char", !8, i64 0}
!8 = !{!"Simple C++ TBAA"}
!9 = !{!10, !10, i64 0}
!10 = !{!"vtable pointer", !8, i64 0}
!11 = !{!12, !13, i64 240}
!12 = !{!"_ZTSSt9basic_iosIcSt11char_traitsIcEE", !13, i64 216, !7, i64 224, !14, i64 225, !13, i64 232, !13, i64 240, !13, i64 248, !13, i64 256}
!13 = !{!"any pointer", !7, i64 0}
!14 = !{!"bool", !7, i64 0}
!15 = !{!16, !7, i64 56}
!16 = !{!"_ZTSSt5ctypeIcE", !13, i64 16, !14, i64 24, !13, i64 32, !13, i64 40, !13, i64 48, !7, i64 56, !7, i64 57, !7, i64 313, !7, i64 569}
!17 = !{!7, !7, i64 0}
!18 = distinct !{!18, !19, !20}
!19 = !{!"llvm.loop.mustprogress"}
!20 = !{!"llvm.loop.peeled.count", i32 1}
!21 = distinct !{!21, !19}
!22 = distinct !{!22, !19}
